target datalayout = "e-m:e-p270:32:32-p271:32:32-p272:64:64-i64:64-i128:128-f80:128-n8:16:32:64-S128"
target triple = "x86_64-pc-linux-gnu"

%struct.VLCElem = type { %union.anon.1 }
%union.anon.1 = type { %struct.anon }
%struct.anon = type { i16, i16 }
%struct.Ir2Context = type { ptr, ptr, %struct.GetBitContext, i32 }
%struct.GetBitContext = type { ptr, ptr, i32, i32, i32 }

@ir2_vlc = internal global [16384 x %struct.VLCElem] zeroinitializer, align 16

; Function Attrs: inlinehint nounwind willreturn memory(none) uwtable
define internal i32 @zero_extend(i32 noundef %0, i32 noundef %1) #7 {
  %3 = alloca i32, align 4
  %4 = alloca i32, align 4
  store i32 %0, ptr %3, align 4, !tbaa !45
  store i32 %1, ptr %4, align 4, !tbaa !45
  %5 = load i32, ptr %3, align 4, !tbaa !45
  %6 = load i32, ptr %4, align 4, !tbaa !45
  %7 = zext i32 %6 to i64
  %8 = sub i64 32, %7
  %9 = trunc i64 %8 to i32
  %10 = shl i32 %5, %9
  %11 = load i32, ptr %4, align 4, !tbaa !45
  %12 = zext i32 %11 to i64
  %13 = sub i64 32, %12
  %14 = trunc i64 %13 to i32
  %15 = lshr i32 %10, %14
  ret i32 %15
}

; Function Attrs: alwaysinline nounwind uwtable
define internal i32 @get_vlc2(ptr noundef %0, ptr noundef %1, i32 noundef %2, i32 noundef %3) #6 {
  %5 = alloca ptr, align 8
  %6 = alloca ptr, align 8
  %7 = alloca i32, align 4
  %8 = alloca i32, align 4
  %9 = alloca i32, align 4
  %10 = alloca i32, align 4
  %11 = alloca i32, align 4
  %12 = alloca i32, align 4
  %13 = alloca i32, align 4
  %14 = alloca i32, align 4
  %15 = alloca i32, align 4
  store ptr %0, ptr %5, align 8, !tbaa !50
  store ptr %1, ptr %6, align 8, !tbaa !65
  store i32 %2, ptr %7, align 4, !tbaa !45
  store i32 %3, ptr %8, align 4, !tbaa !45
  call void @llvm.lifetime.start.p0(i64 4, ptr %9) #8
  call void @llvm.lifetime.start.p0(i64 4, ptr %10) #8
  %16 = load ptr, ptr %5, align 8, !tbaa !50
  %17 = getelementptr inbounds nuw %struct.GetBitContext, ptr %16, i32 0, i32 2
  %18 = load i32, ptr %17, align 8, !tbaa !64
  store i32 %18, ptr %10, align 4, !tbaa !45
  call void @llvm.lifetime.start.p0(i64 4, ptr %11) #8
  call void @llvm.lifetime.start.p0(i64 4, ptr %12) #8
  %19 = load ptr, ptr %5, align 8, !tbaa !50
  %20 = getelementptr inbounds nuw %struct.GetBitContext, ptr %19, i32 0, i32 4
  %21 = load i32, ptr %20, align 8, !tbaa !62
  store i32 %21, ptr %12, align 4, !tbaa !45
  %22 = load ptr, ptr %5, align 8, !tbaa !50
  %23 = getelementptr inbounds nuw %struct.GetBitContext, ptr %22, i32 0, i32 0
  %24 = load ptr, ptr %23, align 8, !tbaa !60
  %25 = load i32, ptr %10, align 4, !tbaa !45
  %26 = lshr i32 %25, 3
  %27 = zext i32 %26 to i64
  %28 = getelementptr inbounds nuw i8, ptr %24, i64 %27
  %29 = load i32, ptr %28, align 1, !tbaa !46
  %30 = load i32, ptr %10, align 4, !tbaa !45
  %31 = and i32 %30, 7
  %32 = lshr i32 %29, %31
  store i32 %32, ptr %11, align 4, !tbaa !45
  br label %33

33:                                               ; preds = %4
  call void @llvm.lifetime.start.p0(i64 4, ptr %13) #8
  call void @llvm.lifetime.start.p0(i64 4, ptr %14) #8
  call void @llvm.lifetime.start.p0(i64 4, ptr %15) #8
  %34 = load i32, ptr %11, align 4, !tbaa !45
  %35 = load i32, ptr %7, align 4, !tbaa !45
  %36 = call i32 @zero_extend(i32 noundef %34, i32 noundef %35) #9
  store i32 %36, ptr %15, align 4, !tbaa !45
  %37 = load ptr, ptr %6, align 8, !tbaa !65
  %38 = load i32, ptr %15, align 4, !tbaa !45
  %39 = zext i32 %38 to i64
  %40 = getelementptr inbounds nuw %struct.VLCElem, ptr %37, i64 %39
  %41 = getelementptr inbounds nuw %struct.VLCElem, ptr %40, i32 0, i32 0
  %42 = getelementptr inbounds nuw %struct.anon, ptr %41, i32 0, i32 0
  %43 = load i16, ptr %42, align 2, !tbaa !46
  %44 = sext i16 %43 to i32
  store i32 %44, ptr %9, align 4, !tbaa !45
  %45 = load ptr, ptr %6, align 8, !tbaa !65
  %46 = load i32, ptr %15, align 4, !tbaa !45
  %47 = zext i32 %46 to i64
  %48 = getelementptr inbounds nuw %struct.VLCElem, ptr %45, i64 %47
  %49 = getelementptr inbounds nuw %struct.VLCElem, ptr %48, i32 0, i32 0
  %50 = getelementptr inbounds nuw %struct.anon, ptr %49, i32 0, i32 1
  %51 = load i16, ptr %50, align 2, !tbaa !46
  %52 = sext i16 %51 to i32
  store i32 %52, ptr %13, align 4, !tbaa !45
  %53 = load i32, ptr %8, align 4, !tbaa !45
  %54 = icmp sgt i32 %53, 1
  br i1 %54, label %55, label %160

55:                                               ; preds = %33
  %56 = load i32, ptr %13, align 4, !tbaa !45
  %57 = icmp slt i32 %56, 0
  br i1 %57, label %58, label %160

58:                                               ; preds = %55
  %59 = load i32, ptr %12, align 4, !tbaa !45
  %60 = load i32, ptr %10, align 4, !tbaa !45
  %61 = load i32, ptr %7, align 4, !tbaa !45
  %62 = add i32 %60, %61
  %63 = icmp ugt i32 %59, %62
  br i1 %63, label %64, label %68

64:                                               ; preds = %58
  %65 = load i32, ptr %10, align 4, !tbaa !45
  %66 = load i32, ptr %7, align 4, !tbaa !45
  %67 = add i32 %65, %66
  br label %70

68:                                               ; preds = %58
  %69 = load i32, ptr %12, align 4, !tbaa !45
  br label %70

70:                                               ; preds = %68, %64
  %71 = phi i32 [ %67, %64 ], [ %69, %68 ]
  store i32 %71, ptr %10, align 4, !tbaa !45
  %72 = load ptr, ptr %5, align 8, !tbaa !50
  %73 = getelementptr inbounds nuw %struct.GetBitContext, ptr %72, i32 0, i32 0
  %74 = load ptr, ptr %73, align 8, !tbaa !60
  %75 = load i32, ptr %10, align 4, !tbaa !45
  %76 = lshr i32 %75, 3
  %77 = zext i32 %76 to i64
  %78 = getelementptr inbounds nuw i8, ptr %74, i64 %77
  %79 = load i32, ptr %78, align 1, !tbaa !46
  %80 = load i32, ptr %10, align 4, !tbaa !45
  %81 = and i32 %80, 7
  %82 = lshr i32 %79, %81
  store i32 %82, ptr %11, align 4, !tbaa !45
  %83 = load i32, ptr %13, align 4, !tbaa !45
  %84 = sub nsw i32 0, %83
  store i32 %84, ptr %14, align 4, !tbaa !45
  %85 = load i32, ptr %11, align 4, !tbaa !45
  %86 = load i32, ptr %14, align 4, !tbaa !45
  %87 = call i32 @zero_extend(i32 noundef %85, i32 noundef %86) #9
  %88 = load i32, ptr %9, align 4, !tbaa !45
  %89 = add i32 %87, %88
  store i32 %89, ptr %15, align 4, !tbaa !45
  %90 = load ptr, ptr %6, align 8, !tbaa !65
  %91 = load i32, ptr %15, align 4, !tbaa !45
  %92 = zext i32 %91 to i64
  %93 = getelementptr inbounds nuw %struct.VLCElem, ptr %90, i64 %92
  %94 = getelementptr inbounds nuw %struct.VLCElem, ptr %93, i32 0, i32 0
  %95 = getelementptr inbounds nuw %struct.anon, ptr %94, i32 0, i32 0
  %96 = load i16, ptr %95, align 2, !tbaa !46
  %97 = sext i16 %96 to i32
  store i32 %97, ptr %9, align 4, !tbaa !45
  %98 = load ptr, ptr %6, align 8, !tbaa !65
  %99 = load i32, ptr %15, align 4, !tbaa !45
  %100 = zext i32 %99 to i64
  %101 = getelementptr inbounds nuw %struct.VLCElem, ptr %98, i64 %100
  %102 = getelementptr inbounds nuw %struct.VLCElem, ptr %101, i32 0, i32 0
  %103 = getelementptr inbounds nuw %struct.anon, ptr %102, i32 0, i32 1
  %104 = load i16, ptr %103, align 2, !tbaa !46
  %105 = sext i16 %104 to i32
  store i32 %105, ptr %13, align 4, !tbaa !45
  %106 = load i32, ptr %8, align 4, !tbaa !45
  %107 = icmp sgt i32 %106, 2
  br i1 %107, label %108, label %159

108:                                              ; preds = %70
  %109 = load i32, ptr %13, align 4, !tbaa !45
  %110 = icmp slt i32 %109, 0
  br i1 %110, label %111, label %159

111:                                              ; preds = %108
  %112 = load i32, ptr %12, align 4, !tbaa !45
  %113 = load i32, ptr %10, align 4, !tbaa !45
  %114 = load i32, ptr %14, align 4, !tbaa !45
  %115 = add i32 %113, %114
  %116 = icmp ugt i32 %112, %115
  br i1 %116, label %117, label %121

117:                                              ; preds = %111
  %118 = load i32, ptr %10, align 4, !tbaa !45
  %119 = load i32, ptr %14, align 4, !tbaa !45
  %120 = add i32 %118, %119
  br label %123

121:                                              ; preds = %111
  %122 = load i32, ptr %12, align 4, !tbaa !45
  br label %123

123:                                              ; preds = %121, %117
  %124 = phi i32 [ %120, %117 ], [ %122, %121 ]
  store i32 %124, ptr %10, align 4, !tbaa !45
  %125 = load ptr, ptr %5, align 8, !tbaa !50
  %126 = getelementptr inbounds nuw %struct.GetBitContext, ptr %125, i32 0, i32 0
  %127 = load ptr, ptr %126, align 8, !tbaa !60
  %128 = load i32, ptr %10, align 4, !tbaa !45
  %129 = lshr i32 %128, 3
  %130 = zext i32 %129 to i64
  %131 = getelementptr inbounds nuw i8, ptr %127, i64 %130
  %132 = load i32, ptr %131, align 1, !tbaa !46
  %133 = load i32, ptr %10, align 4, !tbaa !45
  %134 = and i32 %133, 7
  %135 = lshr i32 %132, %134
  store i32 %135, ptr %11, align 4, !tbaa !45
  %136 = load i32, ptr %13, align 4, !tbaa !45
  %137 = sub nsw i32 0, %136
  store i32 %137, ptr %14, align 4, !tbaa !45
  %138 = load i32, ptr %11, align 4, !tbaa !45
  %139 = load i32, ptr %14, align 4, !tbaa !45
  %140 = call i32 @zero_extend(i32 noundef %138, i32 noundef %139) #9
  %141 = load i32, ptr %9, align 4, !tbaa !45
  %142 = add i32 %140, %141
  store i32 %142, ptr %15, align 4, !tbaa !45
  %143 = load ptr, ptr %6, align 8, !tbaa !65
  %144 = load i32, ptr %15, align 4, !tbaa !45
  %145 = zext i32 %144 to i64
  %146 = getelementptr inbounds nuw %struct.VLCElem, ptr %143, i64 %145
  %147 = getelementptr inbounds nuw %struct.VLCElem, ptr %146, i32 0, i32 0
  %148 = getelementptr inbounds nuw %struct.anon, ptr %147, i32 0, i32 0
  %149 = load i16, ptr %148, align 2, !tbaa !46
  %150 = sext i16 %149 to i32
  store i32 %150, ptr %9, align 4, !tbaa !45
  %151 = load ptr, ptr %6, align 8, !tbaa !65
  %152 = load i32, ptr %15, align 4, !tbaa !45
  %153 = zext i32 %152 to i64
  %154 = getelementptr inbounds nuw %struct.VLCElem, ptr %151, i64 %153
  %155 = getelementptr inbounds nuw %struct.VLCElem, ptr %154, i32 0, i32 0
  %156 = getelementptr inbounds nuw %struct.anon, ptr %155, i32 0, i32 1
  %157 = load i16, ptr %156, align 2, !tbaa !46
  %158 = sext i16 %157 to i32
  store i32 %158, ptr %13, align 4, !tbaa !45
  br label %159

159:                                              ; preds = %123, %108, %70
  br label %160

160:                                              ; preds = %159, %55, %33
  br label %161

161:                                              ; preds = %160
  %162 = load i32, ptr %13, align 4, !tbaa !45
  %163 = load i32, ptr %11, align 4, !tbaa !45
  %164 = lshr i32 %163, %162
  store i32 %164, ptr %11, align 4, !tbaa !45
  %165 = load i32, ptr %12, align 4, !tbaa !45
  %166 = load i32, ptr %10, align 4, !tbaa !45
  %167 = load i32, ptr %13, align 4, !tbaa !45
  %168 = add i32 %166, %167
  %169 = icmp ugt i32 %165, %168
  br i1 %169, label %170, label %174

170:                                              ; preds = %161
  %171 = load i32, ptr %10, align 4, !tbaa !45
  %172 = load i32, ptr %13, align 4, !tbaa !45
  %173 = add i32 %171, %172
  br label %176

174:                                              ; preds = %161
  %175 = load i32, ptr %12, align 4, !tbaa !45
  br label %176

176:                                              ; preds = %174, %170
  %177 = phi i32 [ %173, %170 ], [ %175, %174 ]
  store i32 %177, ptr %10, align 4, !tbaa !45
  br label %178

178:                                              ; preds = %176
  br label %179

179:                                              ; preds = %178
  call void @llvm.lifetime.end.p0(i64 4, ptr %15) #8
  call void @llvm.lifetime.end.p0(i64 4, ptr %14) #8
  call void @llvm.lifetime.end.p0(i64 4, ptr %13) #8
  br label %180

180:                                              ; preds = %179
  br label %181

181:                                              ; preds = %180
  %182 = load i32, ptr %10, align 4, !tbaa !45
  %183 = load ptr, ptr %5, align 8, !tbaa !50
  %184 = getelementptr inbounds nuw %struct.GetBitContext, ptr %183, i32 0, i32 2
  store i32 %182, ptr %184, align 8, !tbaa !64
  %185 = load i32, ptr %9, align 4, !tbaa !45
  call void @llvm.lifetime.end.p0(i64 4, ptr %12) #8
  call void @llvm.lifetime.end.p0(i64 4, ptr %11) #8
  call void @llvm.lifetime.end.p0(i64 4, ptr %10) #8
  call void @llvm.lifetime.end.p0(i64 4, ptr %9) #8
  ret i32 %185
}

; Function Attrs: inlinehint nounwind uwtable
define internal i32 @get_bits_count(ptr noundef %0) #4 {
  %2 = alloca ptr, align 8
  store ptr %0, ptr %2, align 8, !tbaa !50
  %3 = load ptr, ptr %2, align 8, !tbaa !50
  %4 = getelementptr inbounds nuw %struct.GetBitContext, ptr %3, i32 0, i32 2
  %5 = load i32, ptr %4, align 8, !tbaa !64
  ret i32 %5
}

; Function Attrs: alwaysinline nounwind willreturn memory(none) uwtable
define internal zeroext i8 @av_clip_uint8_c(i32 noundef %0) #5 {
  %2 = alloca i8, align 1
  %3 = alloca i32, align 4
  store i32 %0, ptr %3, align 4, !tbaa !45
  %4 = load i32, ptr %3, align 4, !tbaa !45
  %5 = and i32 %4, -256
  %6 = icmp ne i32 %5, 0
  br i1 %6, label %7, label %12

7:                                                ; preds = %1
  %8 = load i32, ptr %3, align 4, !tbaa !45
  %9 = xor i32 %8, -1
  %10 = ashr i32 %9, 31
  %11 = trunc i32 %10 to i8
  store i8 %11, ptr %2, align 1
  br label %15

12:                                               ; preds = %1
  %13 = load i32, ptr %3, align 4, !tbaa !45
  %14 = trunc i32 %13 to i8
  store i8 %14, ptr %2, align 1
  br label %15

15:                                               ; preds = %12, %7
  %16 = load i8, ptr %2, align 1
  ret i8 %16
}

; Function Attrs: inlinehint nounwind uwtable
define internal i32 @ir2_get_code(ptr noundef %0) #4 {
  %2 = alloca ptr, align 8
  store ptr %0, ptr %2, align 8, !tbaa !50
  %3 = load ptr, ptr %2, align 8, !tbaa !50
  %4 = call i32 @get_vlc2(ptr noundef %3, ptr noundef @ir2_vlc, i32 noundef 14, i32 noundef 1)
  ret i32 %4
}

; Function Attrs: inlinehint nounwind uwtable
define internal i32 @get_bits_left(ptr noundef %0) #4 {
  %2 = alloca ptr, align 8
  store ptr %0, ptr %2, align 8, !tbaa !50
  %3 = load ptr, ptr %2, align 8, !tbaa !50
  %4 = getelementptr inbounds nuw %struct.GetBitContext, ptr %3, i32 0, i32 3
  %5 = load i32, ptr %4, align 4, !tbaa !61
  %6 = load ptr, ptr %2, align 8, !tbaa !50
  %7 = call i32 @get_bits_count(ptr noundef %6)
  %8 = sub nsw i32 %5, %7
  ret i32 %8
}

; Function Attrs: nounwind uwtable
define internal i32 @ir2_decode_plane_inter(ptr noundef %0, i32 noundef %1, i32 noundef %2, ptr noundef %3, i32 noundef %4, ptr noundef %5) #1 {
  %7 = alloca i32, align 4
  %8 = alloca ptr, align 8
  %9 = alloca i32, align 4
  %10 = alloca i32, align 4
  %11 = alloca ptr, align 8
  %12 = alloca i32, align 4
  %13 = alloca ptr, align 8
  %14 = alloca i32, align 4
  %15 = alloca i32, align 4
  %16 = alloca i32, align 4
  %17 = alloca i32, align 4
  %18 = alloca i32, align 4
  store ptr %0, ptr %8, align 8, !tbaa !29
  store i32 %1, ptr %9, align 4, !tbaa !45
  store i32 %2, ptr %10, align 4, !tbaa !45
  store ptr %3, ptr %11, align 8, !tbaa !43
  store i32 %4, ptr %12, align 4, !tbaa !45
  store ptr %5, ptr %13, align 8, !tbaa !43
  call void @llvm.lifetime.start.p0(i64 4, ptr %14) #8
  call void @llvm.lifetime.start.p0(i64 4, ptr %15) #8
  store i32 0, ptr %15, align 4, !tbaa !45
  call void @llvm.lifetime.start.p0(i64 4, ptr %16) #8
  call void @llvm.lifetime.start.p0(i64 4, ptr %17) #8
  %19 = load i32, ptr %9, align 4, !tbaa !45
  %20 = and i32 %19, 1
  %21 = icmp ne i32 %20, 0
  br i1 %21, label %22, label %23

22:                                               ; preds = %6
  store i32 -1094995529, ptr %7, align 4
  store i32 1, ptr %18, align 4
  br label %124

23:                                               ; preds = %6
  store i32 0, ptr %14, align 4, !tbaa !45
  br label %24

24:                                               ; preds = %120, %23
  %25 = load i32, ptr %14, align 4, !tbaa !45
  %26 = load i32, ptr %10, align 4, !tbaa !45
  %27 = icmp slt i32 %25, %26
  br i1 %27, label %28, label %123

28:                                               ; preds = %24
  store i32 0, ptr %15, align 4, !tbaa !45
  br label %29

29:                                               ; preds = %114, %28
  %30 = load i32, ptr %15, align 4, !tbaa !45
  %31 = load i32, ptr %9, align 4, !tbaa !45
  %32 = icmp slt i32 %30, %31
  br i1 %32, label %33, label %115

33:                                               ; preds = %29
  %34 = load ptr, ptr %8, align 8, !tbaa !29
  %35 = getelementptr inbounds nuw %struct.Ir2Context, ptr %34, i32 0, i32 2
  %36 = call i32 @get_bits_left(ptr noundef %35)
  %37 = icmp sle i32 %36, 0
  br i1 %37, label %38, label %39

38:                                               ; preds = %33
  store i32 -1094995529, ptr %7, align 4
  store i32 1, ptr %18, align 4
  br label %124

39:                                               ; preds = %33
  %40 = load ptr, ptr %8, align 8, !tbaa !29
  %41 = getelementptr inbounds nuw %struct.Ir2Context, ptr %40, i32 0, i32 2
  %42 = call i32 @ir2_get_code(ptr noundef %41)
  store i32 %42, ptr %16, align 4, !tbaa !45
  %43 = load i32, ptr %16, align 4, !tbaa !45
  %44 = icmp sge i32 %43, 128
  br i1 %44, label %45, label %52

45:                                               ; preds = %39
  %46 = load i32, ptr %16, align 4, !tbaa !45
  %47 = sub nsw i32 %46, 127
  store i32 %47, ptr %16, align 4, !tbaa !45
  %48 = load i32, ptr %16, align 4, !tbaa !45
  %49 = mul nsw i32 %48, 2
  %50 = load i32, ptr %15, align 4, !tbaa !45
  %51 = add nsw i32 %50, %49
  store i32 %51, ptr %15, align 4, !tbaa !45
  br label %114

52:                                               ; preds = %39
  %53 = load i32, ptr %16, align 4, !tbaa !45
  %54 = icmp sle i32 %53, 0
  br i1 %54, label %55, label %56

55:                                               ; preds = %52
  store i32 -1094995529, ptr %7, align 4
  store i32 1, ptr %18, align 4
  br label %124

56:                                               ; preds = %52
  %57 = load ptr, ptr %11, align 8, !tbaa !43
  %58 = load i32, ptr %15, align 4, !tbaa !45
  %59 = sext i32 %58 to i64
  %60 = getelementptr inbounds i8, ptr %57, i64 %59
  %61 = load i8, ptr %60, align 1, !tbaa !46
  %62 = zext i8 %61 to i32
  %63 = load ptr, ptr %13, align 8, !tbaa !43
  %64 = load i32, ptr %16, align 4, !tbaa !45
  %65 = mul nsw i32 %64, 2
  %66 = sext i32 %65 to i64
  %67 = getelementptr inbounds i8, ptr %63, i64 %66
  %68 = load i8, ptr %67, align 1, !tbaa !46
  %69 = zext i8 %68 to i32
  %70 = sub nsw i32 %69, 128
  %71 = mul nsw i32 %70, 3
  %72 = ashr i32 %71, 2
  %73 = add nsw i32 %62, %72
  store i32 %73, ptr %17, align 4, !tbaa !45
  %74 = load i32, ptr %17, align 4, !tbaa !45
  %75 = call zeroext i8 @av_clip_uint8_c(i32 noundef %74) #9
  %76 = zext i8 %75 to i32
  store i32 %76, ptr %17, align 4, !tbaa !45
  %77 = load i32, ptr %17, align 4, !tbaa !45
  %78 = trunc i32 %77 to i8
  %79 = load ptr, ptr %11, align 8, !tbaa !43
  %80 = load i32, ptr %15, align 4, !tbaa !45
  %81 = sext i32 %80 to i64
  %82 = getelementptr inbounds i8, ptr %79, i64 %81
  store i8 %78, ptr %82, align 1, !tbaa !46
  %83 = load i32, ptr %15, align 4, !tbaa !45
  %84 = add nsw i32 %83, 1
  store i32 %84, ptr %15, align 4, !tbaa !45
  %85 = load ptr, ptr %11, align 8, !tbaa !43
  %86 = load i32, ptr %15, align 4, !tbaa !45
  %87 = sext i32 %86 to i64
  %88 = getelementptr inbounds i8, ptr %85, i64 %87
  %89 = load i8, ptr %88, align 1, !tbaa !46
  %90 = zext i8 %89 to i32
  %91 = load ptr, ptr %13, align 8, !tbaa !43
  %92 = load i32, ptr %16, align 4, !tbaa !45
  %93 = mul nsw i32 %92, 2
  %94 = add nsw i32 %93, 1
  %95 = sext i32 %94 to i64
  %96 = getelementptr inbounds i8, ptr %91, i64 %95
  %97 = load i8, ptr %96, align 1, !tbaa !46
  %98 = zext i8 %97 to i32
  %99 = sub nsw i32 %98, 128
  %100 = mul nsw i32 %99, 3
  %101 = ashr i32 %100, 2
  %102 = add nsw i32 %90, %101
  store i32 %102, ptr %17, align 4, !tbaa !45
  %103 = load i32, ptr %17, align 4, !tbaa !45
  %104 = call zeroext i8 @av_clip_uint8_c(i32 noundef %103) #9
  %105 = zext i8 %104 to i32
  store i32 %105, ptr %17, align 4, !tbaa !45
  %106 = load i32, ptr %17, align 4, !tbaa !45
  %107 = trunc i32 %106 to i8
  %108 = load ptr, ptr %11, align 8, !tbaa !43
  %109 = load i32, ptr %15, align 4, !tbaa !45
  %110 = sext i32 %109 to i64
  %111 = getelementptr inbounds i8, ptr %108, i64 %110
  store i8 %107, ptr %111, align 1, !tbaa !46
  %112 = load i32, ptr %15, align 4, !tbaa !45
  %113 = add nsw i32 %112, 1
  store i32 %113, ptr %15, align 4, !tbaa !45
  br label %114

114:                                              ; preds = %56, %45
  br label %29, !llvm.loop !58

115:                                              ; preds = %29
  %116 = load i32, ptr %12, align 4, !tbaa !45
  %117 = load ptr, ptr %11, align 8, !tbaa !43
  %118 = sext i32 %116 to i64
  %119 = getelementptr inbounds i8, ptr %117, i64 %118
  store ptr %119, ptr %11, align 8, !tbaa !43
  br label %120

120:                                              ; preds = %115
  %121 = load i32, ptr %14, align 4, !tbaa !45
  %122 = add nsw i32 %121, 1
  store i32 %122, ptr %14, align 4, !tbaa !45
  br label %24, !llvm.loop !59

123:                                              ; preds = %24
  store i32 0, ptr %7, align 4
  store i32 1, ptr %18, align 4
  br label %124

124:                                              ; preds = %123, %55, %38, %22
  call void @llvm.lifetime.end.p0(i64 4, ptr %17) #8
  call void @llvm.lifetime.end.p0(i64 4, ptr %16) #8
  call void @llvm.lifetime.end.p0(i64 4, ptr %15) #8
  call void @llvm.lifetime.end.p0(i64 4, ptr %14) #8
  %125 = load i32, ptr %7, align 4
  ret i32 %125
}