; Function Attrs: nofree norecurse nosync nounwind memory(read, argmem: readwrite, inaccessiblemem: none) uwtable
define internal fastcc range(i32 -1094995529, 1) i32 @ir2_decode_plane_inter(ptr noundef captures(none) %0, i32 noundef %1, i32 noundef %2, ptr noundef captures(none) %3, i32 noundef %4, ptr noundef readonly captures(none) %5) unnamed_addr #3 {
  %7 = and i32 %1, 1
  %.not = icmp eq i32 %7, 0
  br i1 %.not, label %.preheader43, label %.loopexit

.preheader43:                                     ; preds = %6
  %8 = icmp sgt i32 %2, 0
  br i1 %8, label %.preheader.lr.ph, label %.loopexit

.preheader.lr.ph:                                 ; preds = %.preheader43
  %9 = icmp sgt i32 %1, 0
  %10 = getelementptr i8, ptr %0, i64 32
  %11 = getelementptr i8, ptr %0, i64 36
  %12 = getelementptr inbounds nuw i8, ptr %0, i64 16
  %13 = getelementptr inbounds nuw i8, ptr %0, i64 40
  %14 = sext i32 %4 to i64
  br i1 %9, label %.preheader.us, label %.loopexit

.preheader.us:                                    ; preds = %.preheader.lr.ph, %._crit_edge.us
  %.03447.us = phi i32 [ %72, %._crit_edge.us ], [ 0, %.preheader.lr.ph ]
  %.03546.us = phi ptr [ %71, %._crit_edge.us ], [ %3, %.preheader.lr.ph ]
  %invariant.gep.us = getelementptr i8, ptr %.03546.us, i64 1
  br label %15

15:                                               ; preds = %.preheader.us, %69
  %.03345.us = phi i32 [ 0, %.preheader.us ], [ %.1.us, %69 ]
  %.val.us = load i32, ptr %10, align 8, !tbaa !43
  %.val41.us = load i32, ptr %11, align 4, !tbaa !40
  %.not42.us = icmp sgt i32 %.val41.us, %.val.us
  br i1 %.not42.us, label %16, label %.loopexit

16:                                               ; preds = %15
  %17 = load ptr, ptr %12, align 8, !tbaa !39
  %18 = lshr i32 %.val.us, 3
  %19 = zext nneg i32 %18 to i64
  %20 = getelementptr inbounds nuw i8, ptr %17, i64 %19
  %21 = load i32, ptr %20, align 1, !tbaa !37
  %22 = and i32 %.val.us, 7
  %23 = lshr i32 %21, %22
  %24 = and i32 %23, 16383
  %25 = zext nneg i32 %24 to i64
  %26 = getelementptr inbounds nuw %struct.VLCElem, ptr @ir2_vlc, i64 %25
  %27 = getelementptr inbounds nuw i8, ptr %26, i64 2
  %28 = load i16, ptr %27, align 2, !tbaa !37
  %29 = sext i16 %28 to i32
  %30 = load i16, ptr %26, align 4, !tbaa !37
  %31 = sext i16 %30 to i32
  %32 = load i32, ptr %13, align 8, !tbaa !41
  %33 = add i32 %.val.us, %29
  %34 = tail call i32 @llvm.umin.i32(i32 %32, i32 %33)
  store i32 %34, ptr %10, align 8, !tbaa !43
  %35 = icmp sgt i16 %30, 127
  br i1 %35, label %66, label %36

36:                                               ; preds = %16
  %37 = icmp slt i16 %30, 1
  br i1 %37, label %.loopexit, label %38

38:                                               ; preds = %36
  %39 = zext nneg i32 %.03345.us to i64
  %40 = getelementptr inbounds nuw i8, ptr %.03546.us, i64 %39
  %41 = load i8, ptr %40, align 1, !tbaa !37
  %42 = zext i8 %41 to i32
  %43 = shl nuw nsw i32 %31, 1
  %44 = zext nneg i32 %43 to i64
  %45 = getelementptr inbounds nuw i8, ptr %5, i64 %44
  %46 = load i8, ptr %45, align 1, !tbaa !37
  %47 = zext i8 %46 to i32
  %48 = mul nuw nsw i32 %47, 3
  %49 = add nsw i32 %48, -384
  %50 = ashr i32 %49, 2
  %51 = add nsw i32 %50, %42
  %.not.i.us = icmp ult i32 %51, 256
  %isnotneg.i.us = icmp sgt i32 %51, -1
  %52 = sext i1 %isnotneg.i.us to i8
  %53 = trunc nuw i32 %51 to i8
  %.0.i.us = select i1 %.not.i.us, i8 %53, i8 %52
  store i8 %.0.i.us, ptr %40, align 1, !tbaa !37
  %54 = sext i32 %.03345.us to i64
  %gep.us = getelementptr i8, ptr %invariant.gep.us, i64 %54
  %55 = load i8, ptr %gep.us, align 1, !tbaa !37
  %56 = zext i8 %55 to i32
  %57 = getelementptr inbounds nuw i8, ptr %45, i64 1
  %58 = load i8, ptr %57, align 1, !tbaa !37
  %59 = zext i8 %58 to i32
  %60 = mul nuw nsw i32 %59, 3
  %61 = add nsw i32 %60, -384
  %62 = ashr i32 %61, 2
  %63 = add nsw i32 %62, %56
  %.not.i38.us = icmp ult i32 %63, 256
  %isnotneg.i39.us = icmp sgt i32 %63, -1
  %64 = sext i1 %isnotneg.i39.us to i8
  %65 = trunc nuw i32 %63 to i8
  %.0.i40.us = select i1 %.not.i38.us, i8 %65, i8 %64
  store i8 %.0.i40.us, ptr %gep.us, align 1, !tbaa !37
  br label %69

66:                                               ; preds = %16
  %67 = shl nuw nsw i32 %31, 1
  %68 = add nsw i32 %67, -254
  br label %69

69:                                               ; preds = %66, %38
  %.pn.us = phi i32 [ %68, %66 ], [ 2, %38 ]
  %.1.us = add nuw nsw i32 %.pn.us, %.03345.us
  %70 = icmp slt i32 %.1.us, %1
  br i1 %70, label %15, label %._crit_edge.us, !llvm.loop !48

._crit_edge.us:                                   ; preds = %69
  %71 = getelementptr inbounds i8, ptr %.03546.us, i64 %14
  %72 = add nuw nsw i32 %.03447.us, 1
  %exitcond.not = icmp eq i32 %72, %2
  br i1 %exitcond.not, label %.loopexit, label %.preheader.us, !llvm.loop !50

.loopexit:                                        ; preds = %._crit_edge.us, %36, %15, %.preheader.lr.ph, %.preheader43, %6
  %.0 = phi i32 [ -1094995529, %6 ], [ 0, %.preheader43 ], [ 0, %.preheader.lr.ph ], [ -1094995529, %15 ], [ -1094995529, %36 ], [ 0, %._crit_edge.us ]
  ret i32 %.0
}